(dp1
S'rangeid'
p2
I122
sS'prevwidth'
p3
I754
sS'range_interval'
p4
(dp5
I112
I01
sI40
I01
sI73
I01
sI48
I01
sI105
I01
sI120
I01
sI58
I01
sI60
I01
sI95
I01
ssS'interval'
p6
I00
sS'range'
p7
(dp8
I32
(lp9
I286
aI360
aI414
aI754
aI572
aI855
aI702
aI247
asI97
(lp10
I551
aI571
aI495
aI571
aI554
aI316
aI571
aI570
asI107
(lp11
I521
aI250
aI876
aI570
aI550
asI40
(lp12
I351
aI351
asI73
(lp13
I265
aI265
asI42
(lp14
I450
aI754
aI286
aI325
aI286
aI303
asI75
(lp15
I590
aI501
aI776
aI673
aI708
aI542
aI708
aI625
aI571
aI549
aI659
aI615
aI890
aI616
aI549
aI616
aI351
aI303
aI351
aI754
asI112
(lp16
I571
aI571
asI48
(lp17
I572
aI572
aI572
aI572
aI572
aI572
aI572
aI572
aI572
aI572
asI114
(lp18
I370
aI469
aI353
aI570
aI532
aI736
asI105
(lp19
I250
aI250
asI120
(lp20
I532
aI532
asI58
(lp21
I303
aI303
asI95
(lp22
I450
aI450
asI60
(lp23
I754
aI754
aI754
asI122
(lp24
I472
aI572
aI303
aI572
aI754
asI63
(lp25
I478
aI900
aI615
aI617
aI628
aI693
aI568
aI518
aI697
aI677
assS'prevcid'
p26
I126
s.